target datalayout = "e-m:e-p270:32:32-p271:32:32-p272:64:64-i64:64-i128:128-f80:128-n8:16:32:64-S128"
target triple = "x86_64-pc-linux-gnu"

%struct.sfparse_vec = type { ptr, i64 }

; Function Attrs: nounwind uwtable
define internal i32 @pctdecode(ptr noundef %0, ptr noundef %1) #0 {
  %3 = alloca i32, align 4
  %4 = alloca ptr, align 8
  %5 = alloca ptr, align 8
  %6 = alloca i8, align 1
  %7 = alloca i8, align 1
  %8 = alloca i32, align 4
  store ptr %0, ptr %4, align 8, !tbaa !25
  store ptr %1, ptr %5, align 8, !tbaa !34
  call void @llvm.lifetime.start.p0(i64 1, ptr %6) #5
  call void @llvm.lifetime.start.p0(i64 1, ptr %7) #5
  %9 = load ptr, ptr %5, align 8, !tbaa !34
  %10 = load ptr, ptr %9, align 8, !tbaa !25
  %11 = load i8, ptr %10, align 1, !tbaa !18
  store i8 %11, ptr %7, align 1, !tbaa !18
  %12 = load i8, ptr %7, align 1, !tbaa !18
  %13 = zext i8 %12 to i32
  switch i32 %13, label %27 [
    i32 48, label %14
    i32 49, label %14
    i32 50, label %14
    i32 51, label %14
    i32 52, label %14
    i32 53, label %14
    i32 54, label %14
    i32 55, label %14
    i32 56, label %14
    i32 57, label %14
    i32 97, label %20
    i32 98, label %20
    i32 99, label %20
    i32 100, label %20
    i32 101, label %20
    i32 102, label %20
  ]

14:                                               ; preds = %2, %2, %2, %2, %2, %2, %2, %2, %2, %2
  %15 = load i8, ptr %7, align 1, !tbaa !18
  %16 = zext i8 %15 to i32
  %17 = sub nsw i32 %16, 48
  %18 = shl i32 %17, 4
  %19 = trunc i32 %18 to i8
  store i8 %19, ptr %6, align 1, !tbaa !18
  br label %28

20:                                               ; preds = %2, %2, %2, %2, %2, %2
  %21 = load i8, ptr %7, align 1, !tbaa !18
  %22 = zext i8 %21 to i32
  %23 = sub nsw i32 %22, 97
  %24 = add nsw i32 %23, 10
  %25 = shl i32 %24, 4
  %26 = trunc i32 %25 to i8
  store i8 %26, ptr %6, align 1, !tbaa !18
  br label %28

27:                                               ; preds = %2
  store i32 -1, ptr %3, align 4
  store i32 1, ptr %8, align 4
  br label %63

28:                                               ; preds = %20, %14
  %29 = load ptr, ptr %5, align 8, !tbaa !34
  %30 = load ptr, ptr %29, align 8, !tbaa !25
  %31 = getelementptr inbounds nuw i8, ptr %30, i32 1
  store ptr %31, ptr %29, align 8, !tbaa !25
  %32 = load i8, ptr %31, align 1, !tbaa !18
  store i8 %32, ptr %7, align 1, !tbaa !18
  %33 = load i8, ptr %7, align 1, !tbaa !18
  %34 = zext i8 %33 to i32
  switch i32 %34, label %56 [
    i32 48, label %35
    i32 49, label %35
    i32 50, label %35
    i32 51, label %35
    i32 52, label %35
    i32 53, label %35
    i32 54, label %35
    i32 55, label %35
    i32 56, label %35
    i32 57, label %35
    i32 97, label %45
    i32 98, label %45
    i32 99, label %45
    i32 100, label %45
    i32 101, label %45
    i32 102, label %45
  ]

35:                                               ; preds = %28, %28, %28, %28, %28, %28, %28, %28, %28, %28
  %36 = load i8, ptr %7, align 1, !tbaa !18
  %37 = zext i8 %36 to i32
  %38 = sub nsw i32 %37, 48
  %39 = trunc i32 %38 to i8
  %40 = zext i8 %39 to i32
  %41 = load i8, ptr %6, align 1, !tbaa !18
  %42 = zext i8 %41 to i32
  %43 = or i32 %42, %40
  %44 = trunc i32 %43 to i8
  store i8 %44, ptr %6, align 1, !tbaa !18
  br label %57

45:                                               ; preds = %28, %28, %28, %28, %28, %28
  %46 = load i8, ptr %7, align 1, !tbaa !18
  %47 = zext i8 %46 to i32
  %48 = sub nsw i32 %47, 97
  %49 = add nsw i32 %48, 10
  %50 = trunc i32 %49 to i8
  %51 = zext i8 %50 to i32
  %52 = load i8, ptr %6, align 1, !tbaa !18
  %53 = zext i8 %52 to i32
  %54 = or i32 %53, %51
  %55 = trunc i32 %54 to i8
  store i8 %55, ptr %6, align 1, !tbaa !18
  br label %57

56:                                               ; preds = %28
  store i32 -1, ptr %3, align 4
  store i32 1, ptr %8, align 4
  br label %63

57:                                               ; preds = %45, %35
  %58 = load i8, ptr %6, align 1, !tbaa !18
  %59 = load ptr, ptr %4, align 8, !tbaa !25
  store i8 %58, ptr %59, align 1, !tbaa !18
  %60 = load ptr, ptr %5, align 8, !tbaa !34
  %61 = load ptr, ptr %60, align 8, !tbaa !25
  %62 = getelementptr inbounds nuw i8, ptr %61, i32 1
  store ptr %62, ptr %60, align 8, !tbaa !25
  store i32 0, ptr %3, align 4
  store i32 1, ptr %8, align 4
  br label %63

63:                                               ; preds = %57, %56, %27
  call void @llvm.lifetime.end.p0(i64 1, ptr %7) #5
  call void @llvm.lifetime.end.p0(i64 1, ptr %6) #5
  %64 = load i32, ptr %3, align 4
  ret i32 %64
}

; Function Attrs: nounwind uwtable
define hidden void @sfparse_pctdecode(ptr noundef %0, ptr noundef %1) #0 {
  %3 = alloca ptr, align 8
  %4 = alloca ptr, align 8
  %5 = alloca ptr, align 8
  %6 = alloca ptr, align 8
  %7 = alloca ptr, align 8
  %8 = alloca i64, align 8
  %9 = alloca i64, align 8
  %10 = alloca i32, align 4
  store ptr %0, ptr %3, align 8, !tbaa !8
  store ptr %1, ptr %4, align 8, !tbaa !8
  call void @llvm.lifetime.start.p0(i64 8, ptr %5) #5
  call void @llvm.lifetime.start.p0(i64 8, ptr %6) #5
  call void @llvm.lifetime.start.p0(i64 8, ptr %7) #5
  call void @llvm.lifetime.start.p0(i64 8, ptr %8) #5
  call void @llvm.lifetime.start.p0(i64 8, ptr %9) #5
  %11 = load ptr, ptr %4, align 8, !tbaa !8
  %12 = getelementptr inbounds nuw %struct.sfparse_vec, ptr %11, i32 0, i32 1
  %13 = load i64, ptr %12, align 8, !tbaa !30
  %14 = icmp eq i64 %13, 0
  br i1 %14, label %15, label %18

15:                                               ; preds = %2
  %16 = load ptr, ptr %3, align 8, !tbaa !8
  %17 = getelementptr inbounds nuw %struct.sfparse_vec, ptr %16, i32 0, i32 1
  store i64 0, ptr %17, align 8, !tbaa !30
  store i32 1, ptr %10, align 4
  br label %71

18:                                               ; preds = %2
  %19 = load ptr, ptr %3, align 8, !tbaa !8
  %20 = getelementptr inbounds nuw %struct.sfparse_vec, ptr %19, i32 0, i32 0
  %21 = load ptr, ptr %20, align 8, !tbaa !27
  store ptr %21, ptr %7, align 8, !tbaa !25
  %22 = load ptr, ptr %4, align 8, !tbaa !8
  %23 = getelementptr inbounds nuw %struct.sfparse_vec, ptr %22, i32 0, i32 0
  %24 = load ptr, ptr %23, align 8, !tbaa !27
  store ptr %24, ptr %5, align 8, !tbaa !25
  %25 = load ptr, ptr %4, align 8, !tbaa !8
  %26 = getelementptr inbounds nuw %struct.sfparse_vec, ptr %25, i32 0, i32 1
  %27 = load i64, ptr %26, align 8, !tbaa !30
  store i64 %27, ptr %8, align 8, !tbaa !31
  br label %28

28:                                               ; preds = %50, %18
  %29 = load ptr, ptr %5, align 8, !tbaa !25
  %30 = load i64, ptr %8, align 8, !tbaa !31
  %31 = call ptr @memchr(ptr noundef %29, i32 noundef 37, i64 noundef %30) #7
  store ptr %31, ptr %6, align 8, !tbaa !25
  %32 = load ptr, ptr %6, align 8, !tbaa !25
  %33 = icmp eq ptr %32, null
  br i1 %33, label %34, label %50

34:                                               ; preds = %28
  %35 = load ptr, ptr %7, align 8, !tbaa !25
  %36 = load ptr, ptr %5, align 8, !tbaa !25
  %37 = load i64, ptr %8, align 8, !tbaa !31
  call void @llvm.memcpy.p0.p0.i64(ptr align 1 %35, ptr align 1 %36, i64 %37, i1 false)
  %38 = load i64, ptr %8, align 8, !tbaa !31
  %39 = load ptr, ptr %7, align 8, !tbaa !25
  %40 = getelementptr inbounds nuw i8, ptr %39, i64 %38
  store ptr %40, ptr %7, align 8, !tbaa !25
  %41 = load ptr, ptr %7, align 8, !tbaa !25
  %42 = load ptr, ptr %3, align 8, !tbaa !8
  %43 = getelementptr inbounds nuw %struct.sfparse_vec, ptr %42, i32 0, i32 0
  %44 = load ptr, ptr %43, align 8, !tbaa !27
  %45 = ptrtoint ptr %41 to i64
  %46 = ptrtoint ptr %44 to i64
  %47 = sub i64 %45, %46
  %48 = load ptr, ptr %3, align 8, !tbaa !8
  %49 = getelementptr inbounds nuw %struct.sfparse_vec, ptr %48, i32 0, i32 1
  store i64 %47, ptr %49, align 8, !tbaa !30
  store i32 1, ptr %10, align 4
  br label %71

50:                                               ; preds = %28
  %51 = load ptr, ptr %6, align 8, !tbaa !25
  %52 = load ptr, ptr %5, align 8, !tbaa !25
  %53 = ptrtoint ptr %51 to i64
  %54 = ptrtoint ptr %52 to i64
  %55 = sub i64 %53, %54
  store i64 %55, ptr %9, align 8, !tbaa !31
  %56 = load ptr, ptr %7, align 8, !tbaa !25
  %57 = load ptr, ptr %5, align 8, !tbaa !25
  %58 = load i64, ptr %9, align 8, !tbaa !31
  call void @llvm.memcpy.p0.p0.i64(ptr align 1 %56, ptr align 1 %57, i64 %58, i1 false)
  %59 = load i64, ptr %9, align 8, !tbaa !31
  %60 = load ptr, ptr %7, align 8, !tbaa !25
  %61 = getelementptr inbounds nuw i8, ptr %60, i64 %59
  store ptr %61, ptr %7, align 8, !tbaa !25
  %62 = load ptr, ptr %6, align 8, !tbaa !25
  %63 = getelementptr inbounds i8, ptr %62, i64 1
  store ptr %63, ptr %5, align 8, !tbaa !25
  %64 = load ptr, ptr %7, align 8, !tbaa !25
  %65 = getelementptr inbounds nuw i8, ptr %64, i32 1
  store ptr %65, ptr %7, align 8, !tbaa !25
  %66 = call i32 @pctdecode(ptr noundef %64, ptr noundef %5)
  %67 = load i64, ptr %9, align 8, !tbaa !31
  %68 = add i64 %67, 3
  %69 = load i64, ptr %8, align 8, !tbaa !31
  %70 = sub i64 %69, %68
  store i64 %70, ptr %8, align 8, !tbaa !31
  br label %28

71:                                               ; preds = %34, %15
  call void @llvm.lifetime.end.p0(i64 8, ptr %9) #5
  call void @llvm.lifetime.end.p0(i64 8, ptr %8) #5
  call void @llvm.lifetime.end.p0(i64 8, ptr %7) #5
  call void @llvm.lifetime.end.p0(i64 8, ptr %6) #5
  call void @llvm.lifetime.end.p0(i64 8, ptr %5) #5
  ret void
}