; Function Attrs: nofree nounwind memory(readwrite, inaccessiblemem: none) uwtable
define hidden void @sfparse_pctdecode(ptr noundef captures(none) %0, ptr noundef readonly captures(none) %1) local_unnamed_addr #5 {
  %3 = getelementptr inbounds nuw i8, ptr %1, i64 8
  %4 = load i64, ptr %3, align 8, !tbaa !22
  %5 = icmp eq i64 %4, 0
  br i1 %5, label %39, label %6

6:                                                ; preds = %2
  %7 = load ptr, ptr %0, align 8, !tbaa !19
  %8 = load ptr, ptr %1, align 8, !tbaa !19
  %9 = tail call ptr @memchr(ptr noundef %8, i32 noundef 37, i64 noundef %4) #9
  %10 = icmp eq ptr %9, null
  br i1 %10, label %._crit_edge, label %.lr.ph

._crit_edge:                                      ; preds = %pctdecode.exit, %6
  %.026.lcssa = phi ptr [ %8, %6 ], [ %.1, %pctdecode.exit ]
  %.022.lcssa = phi i64 [ %4, %6 ], [ %36, %pctdecode.exit ]
  %.0.lcssa = phi ptr [ %7, %6 ], [ %22, %pctdecode.exit ]
  tail call void @llvm.memcpy.p0.p0.i64(ptr align 1 %.0.lcssa, ptr align 1 %.026.lcssa, i64 %.022.lcssa, i1 false)
  %11 = getelementptr inbounds nuw i8, ptr %.0.lcssa, i64 %.022.lcssa
  %12 = load ptr, ptr %0, align 8, !tbaa !19
  %13 = ptrtoint ptr %11 to i64
  %14 = ptrtoint ptr %12 to i64
  %15 = sub i64 %13, %14
  br label %39

.lr.ph:                                           ; preds = %6, %pctdecode.exit
  %16 = phi ptr [ %37, %pctdecode.exit ], [ %9, %6 ]
  %.030 = phi ptr [ %22, %pctdecode.exit ], [ %7, %6 ]
  %.02229 = phi i64 [ %36, %pctdecode.exit ], [ %4, %6 ]
  %.02628 = phi ptr [ %.1, %pctdecode.exit ], [ %8, %6 ]
  %17 = ptrtoint ptr %16 to i64
  %18 = ptrtoint ptr %.02628 to i64
  %19 = sub i64 %17, %18
  tail call void @llvm.memcpy.p0.p0.i64(ptr align 1 %.030, ptr align 1 %.02628, i64 %19, i1 false)
  %20 = getelementptr inbounds nuw i8, ptr %.030, i64 %19
  %21 = getelementptr inbounds nuw i8, ptr %16, i64 1
  %22 = getelementptr inbounds nuw i8, ptr %20, i64 1
  %23 = load i8, ptr %21, align 1, !tbaa !12
  switch i8 %23, label %pctdecode.exit [
    i8 48, label %24
    i8 49, label %24
    i8 50, label %24
    i8 51, label %24
    i8 52, label %24
    i8 53, label %24
    i8 54, label %24
    i8 55, label %24
    i8 56, label %24
    i8 57, label %24
    i8 97, label %26
    i8 98, label %26
    i8 99, label %26
    i8 100, label %26
    i8 101, label %26
    i8 102, label %26
  ]

24:                                               ; preds = %.lr.ph, %.lr.ph, %.lr.ph, %.lr.ph, %.lr.ph, %.lr.ph, %.lr.ph, %.lr.ph, %.lr.ph, %.lr.ph
  %25 = shl i8 %23, 4
  br label %29

26:                                               ; preds = %.lr.ph, %.lr.ph, %.lr.ph, %.lr.ph, %.lr.ph, %.lr.ph
  %27 = shl i8 %23, 4
  %28 = add nuw nsw i8 %27, -112
  br label %29

29:                                               ; preds = %26, %24
  %.0.i = phi i8 [ %28, %26 ], [ %25, %24 ]
  %30 = getelementptr inbounds nuw i8, ptr %16, i64 2
  %31 = load i8, ptr %30, align 1, !tbaa !12
  switch i8 %31, label %pctdecode.exit [
    i8 48, label %33
    i8 49, label %33
    i8 50, label %33
    i8 51, label %33
    i8 52, label %33
    i8 53, label %33
    i8 54, label %33
    i8 55, label %33
    i8 56, label %33
    i8 57, label %33
    i8 97, label %32
    i8 98, label %32
    i8 99, label %32
    i8 100, label %32
    i8 101, label %32
    i8 102, label %32
  ]

32:                                               ; preds = %29, %29, %29, %29, %29, %29
  br label %33

33:                                               ; preds = %32, %29, %29, %29, %29, %29, %29, %29, %29, %29, %29
  %.sink.i = phi i8 [ -87, %32 ], [ -48, %29 ], [ -48, %29 ], [ -48, %29 ], [ -48, %29 ], [ -48, %29 ], [ -48, %29 ], [ -48, %29 ], [ -48, %29 ], [ -48, %29 ], [ -48, %29 ]
  %34 = add nsw i8 %.sink.i, %31
  %.1.i = or i8 %34, %.0.i
  store i8 %.1.i, ptr %20, align 1, !tbaa !12
  %35 = getelementptr inbounds nuw i8, ptr %16, i64 3
  br label %pctdecode.exit

pctdecode.exit:                                   ; preds = %.lr.ph, %29, %33
  %.1 = phi ptr [ %21, %.lr.ph ], [ %30, %29 ], [ %35, %33 ]
  %.neg27 = add i64 %.02229, -3
  %36 = sub i64 %.neg27, %19
  %37 = tail call ptr @memchr(ptr noundef nonnull %.1, i32 noundef 37, i64 noundef %36) #9
  %38 = icmp eq ptr %37, null
  br i1 %38, label %._crit_edge, label %.lr.ph

39:                                               ; preds = %2, %._crit_edge
  %.sink = phi i64 [ %15, %._crit_edge ], [ 0, %2 ]
  %40 = getelementptr inbounds nuw i8, ptr %0, i64 8
  store i64 %.sink, ptr %40, align 8, !tbaa !22
  ret void
}